target datalayout = "e-m:e-p270:32:32-p271:32:32-p272:64:64-i64:64-i128:128-f80:128-n8:16:32:64-S128"
target triple = "x86_64-pc-linux-gnu"

%struct._packet_info = type { ptr, ptr, i32, i32, %struct.nstime_t, %struct.nstime_t, %struct.nstime_t, i8, ptr, ptr, ptr, ptr, %struct._address, %struct._address, %struct._address, %struct._address, %struct._address, %struct._address, i32, ptr, i8, [3 x i8], %struct.anon, i32, i32, i32, i32, ptr, i8, ptr, ptr, i16, i16, i32, i32, i16, i32, i32, ptr, ptr, ptr, i8, i8, i16, i16, i16, i32, i16, i16, ptr, ptr, ptr, ptr, ptr, i32, i32 }
%struct.nstime_t = type { i64, i32 }
%struct._address = type { i32, i32, ptr, ptr }
%struct.anon = type { i8, [3 x i8] }

@hf_dtpt_sockaddr_length = internal global i32 0, align 4
@hf_dtpt_sockaddr_family = internal global i32 0, align 4
@hf_dtpt_sockaddr_port = internal global i32 0, align 4
@hf_dtpt_sockaddr_address = internal global i32 0, align 4
@hf_dtpt_padding = internal global i32 0, align 4
@ett_dtpt_sockaddr = internal global i32 0, align 4
@.str.210 = private unnamed_addr constant [8 x i8] c": %s:%d\00", align 1

; Function Attrs: null_pointer_is_valid sspstrong uwtable
define internal i32 @dissect_dtpt_sockaddr(ptr noundef %0, i32 noundef %1, ptr noundef %2, ptr noundef %3, i32 noundef %4, i32 noundef %5) #0 {
  %7 = alloca ptr, align 8
  %8 = alloca i32, align 4
  %9 = alloca ptr, align 8
  %10 = alloca ptr, align 8
  %11 = alloca i32, align 4
  %12 = alloca i32, align 4
  %13 = alloca i32, align 4
  %14 = alloca ptr, align 8
  %15 = alloca ptr, align 8
  %16 = alloca i32, align 4
  %17 = alloca i32, align 4
  %18 = alloca i16, align 2
  %19 = alloca i16, align 2
  %20 = alloca i32, align 4
  %21 = alloca i16, align 2
  store ptr %0, ptr %7, align 8
  store i32 %1, ptr %8, align 4
  store ptr %2, ptr %9, align 8
  store ptr %3, ptr %10, align 8
  store i32 %4, ptr %11, align 4
  store i32 %5, ptr %12, align 4
  call void @llvm.lifetime.start.p0(i64 4, ptr %13) #7
  store i32 0, ptr %13, align 4
  call void @llvm.lifetime.start.p0(i64 8, ptr %14) #7
  store ptr null, ptr %14, align 8
  call void @llvm.lifetime.start.p0(i64 8, ptr %15) #7
  store ptr null, ptr %15, align 8
  call void @llvm.lifetime.start.p0(i64 4, ptr %16) #7
  store i32 0, ptr %16, align 4
  call void @llvm.lifetime.start.p0(i64 4, ptr %17) #7
  store i32 0, ptr %17, align 4
  %22 = load i32, ptr %12, align 4
  switch i32 %22, label %25 [
    i32 1, label %23
    i32 2, label %24
  ]

23:                                               ; preds = %6
  store i32 4, ptr %16, align 4
  store i32 16, ptr %17, align 4
  br label %25

24:                                               ; preds = %6
  store i32 0, ptr %16, align 4
  store i32 30, ptr %17, align 4
  br label %25

25:                                               ; preds = %6, %24, %23
  %26 = load i32, ptr %12, align 4
  %27 = icmp eq i32 %26, 1
  br i1 %27, label %28, label %33

28:                                               ; preds = %25
  %29 = load ptr, ptr %7, align 8
  %30 = load i32, ptr %8, align 4
  %31 = add i32 %30, 0
  %32 = call i32 @tvb_get_letohl(ptr noundef %29, i32 noundef %31)
  store i32 %32, ptr %13, align 4
  br label %33

33:                                               ; preds = %28, %25
  %34 = load ptr, ptr %9, align 8
  %35 = icmp ne ptr %34, null
  br i1 %35, label %36, label %58

36:                                               ; preds = %33
  %37 = load ptr, ptr %9, align 8
  %38 = load ptr, ptr %7, align 8
  %39 = load i32, ptr %8, align 4
  %40 = load i32, ptr %16, align 4
  %41 = load i32, ptr %17, align 4
  %42 = add i32 %40, %41
  %43 = load i32, ptr @ett_dtpt_sockaddr, align 4
  %44 = load i32, ptr %11, align 4
  %45 = call ptr @proto_registrar_get_name(i32 noundef %44)
  %46 = call ptr @proto_tree_add_subtree(ptr noundef %37, ptr noundef %38, i32 noundef %39, i32 noundef %42, i32 noundef %43, ptr noundef null, ptr noundef %45)
  store ptr %46, ptr %15, align 8
  %47 = load i32, ptr %12, align 4
  %48 = icmp eq i32 %47, 1
  br i1 %48, label %49, label %57

49:                                               ; preds = %36
  %50 = load ptr, ptr %15, align 8
  %51 = load i32, ptr @hf_dtpt_sockaddr_length, align 4
  %52 = load ptr, ptr %7, align 8
  %53 = load i32, ptr %8, align 4
  %54 = add i32 %53, 0
  %55 = load i32, ptr %13, align 4
  %56 = call ptr @proto_tree_add_uint(ptr noundef %50, i32 noundef %51, ptr noundef %52, i32 noundef %54, i32 noundef 4, i32 noundef %55)
  br label %57

57:                                               ; preds = %49, %36
  br label %58

58:                                               ; preds = %57, %33
  %59 = load i32, ptr %16, align 4
  %60 = load i32, ptr %8, align 4
  %61 = add i32 %60, %59
  store i32 %61, ptr %8, align 4
  %62 = load ptr, ptr %15, align 8
  %63 = icmp ne ptr %62, null
  br i1 %63, label %64, label %171

64:                                               ; preds = %58
  %65 = load i32, ptr %12, align 4
  switch i32 %65, label %170 [
    i32 1, label %66
    i32 2, label %115
  ]

66:                                               ; preds = %64
  call void @llvm.lifetime.start.p0(i64 2, ptr %18) #7
  %67 = load ptr, ptr %7, align 8
  %68 = load i32, ptr %8, align 4
  %69 = call zeroext i16 @tvb_get_letohs(ptr noundef %67, i32 noundef %68)
  store i16 %69, ptr %18, align 2
  %70 = load ptr, ptr %15, align 8
  %71 = load i32, ptr @hf_dtpt_sockaddr_family, align 4
  %72 = load ptr, ptr %7, align 8
  %73 = load i32, ptr %8, align 4
  %74 = load i16, ptr %18, align 2
  %75 = zext i16 %74 to i32
  %76 = call ptr @proto_tree_add_uint(ptr noundef %70, i32 noundef %71, ptr noundef %72, i32 noundef %73, i32 noundef 2, i32 noundef %75)
  %77 = load i16, ptr %18, align 2
  %78 = zext i16 %77 to i32
  switch i32 %78, label %114 [
    i32 2, label %79
  ]

79:                                               ; preds = %66
  call void @llvm.lifetime.start.p0(i64 2, ptr %19) #7
  %80 = load ptr, ptr %7, align 8
  %81 = load i32, ptr %8, align 4
  %82 = add i32 %81, 2
  %83 = call zeroext i16 @tvb_get_ntohs(ptr noundef %80, i32 noundef %82)
  store i16 %83, ptr %19, align 2
  %84 = load ptr, ptr %15, align 8
  %85 = load i32, ptr @hf_dtpt_sockaddr_port, align 4
  %86 = load ptr, ptr %7, align 8
  %87 = load i32, ptr %8, align 4
  %88 = add i32 %87, 2
  %89 = load i16, ptr %19, align 2
  %90 = zext i16 %89 to i32
  %91 = call ptr @proto_tree_add_uint(ptr noundef %84, i32 noundef %85, ptr noundef %86, i32 noundef %88, i32 noundef 2, i32 noundef %90)
  %92 = load ptr, ptr %15, align 8
  %93 = load i32, ptr @hf_dtpt_sockaddr_address, align 4
  %94 = load ptr, ptr %7, align 8
  %95 = load i32, ptr %8, align 4
  %96 = add i32 %95, 4
  %97 = call ptr @proto_tree_add_item(ptr noundef %92, i32 noundef %93, ptr noundef %94, i32 noundef %96, i32 noundef 4, i32 noundef 0)
  %98 = load ptr, ptr %15, align 8
  %99 = load i32, ptr @hf_dtpt_padding, align 4
  %100 = load ptr, ptr %7, align 8
  %101 = load i32, ptr %8, align 4
  %102 = add i32 %101, 8
  %103 = call ptr @proto_tree_add_item(ptr noundef %98, i32 noundef %99, ptr noundef %100, i32 noundef %102, i32 noundef 8, i32 noundef 0)
  %104 = load ptr, ptr %14, align 8
  %105 = load ptr, ptr %10, align 8
  %106 = getelementptr inbounds nuw %struct._packet_info, ptr %105, i32 0, i32 51
  %107 = load ptr, ptr %106, align 8
  %108 = load ptr, ptr %7, align 8
  %109 = load i32, ptr %8, align 4
  %110 = add i32 %109, 4
  %111 = call ptr @tvb_address_to_str(ptr noundef %107, ptr noundef %108, i32 noundef 2, i32 noundef %110)
  %112 = load i16, ptr %19, align 2
  %113 = zext i16 %112 to i32
  call void (ptr, ptr, ...) @proto_item_append_text(ptr noundef %104, ptr noundef @.str.210, ptr noundef %111, i32 noundef %113)
  call void @llvm.lifetime.end.p0(i64 2, ptr %19) #7
  br label %114

114:                                              ; preds = %66, %79
  call void @llvm.lifetime.end.p0(i64 2, ptr %18) #7
  br label %170

115:                                              ; preds = %64
  call void @llvm.lifetime.start.p0(i64 4, ptr %20) #7
  %116 = load ptr, ptr %7, align 8
  %117 = load i32, ptr %8, align 4
  %118 = add i32 %117, 0
  %119 = call i32 @tvb_get_letohl(ptr noundef %116, i32 noundef %118)
  store i32 %119, ptr %20, align 4
  %120 = load ptr, ptr %15, align 8
  %121 = load i32, ptr @hf_dtpt_sockaddr_family, align 4
  %122 = load ptr, ptr %7, align 8
  %123 = load i32, ptr %8, align 4
  %124 = add i32 %123, 0
  %125 = load i32, ptr %20, align 4
  %126 = call ptr @proto_tree_add_uint(ptr noundef %120, i32 noundef %121, ptr noundef %122, i32 noundef %124, i32 noundef 4, i32 noundef %125)
  %127 = load i32, ptr %20, align 4
  switch i32 %127, label %169 [
    i32 2, label %128
  ]

128:                                              ; preds = %115
  call void @llvm.lifetime.start.p0(i64 2, ptr %21) #7
  %129 = load ptr, ptr %15, align 8
  %130 = load i32, ptr @hf_dtpt_padding, align 4
  %131 = load ptr, ptr %7, align 8
  %132 = load i32, ptr %8, align 4
  %133 = add i32 %132, 4
  %134 = call ptr @proto_tree_add_item(ptr noundef %129, i32 noundef %130, ptr noundef %131, i32 noundef %133, i32 noundef 4, i32 noundef 0)
  %135 = load ptr, ptr %7, align 8
  %136 = load i32, ptr %8, align 4
  %137 = add i32 %136, 8
  %138 = call zeroext i16 @tvb_get_ntohs(ptr noundef %135, i32 noundef %137)
  store i16 %138, ptr %21, align 2
  %139 = load ptr, ptr %15, align 8
  %140 = load i32, ptr @hf_dtpt_sockaddr_port, align 4
  %141 = load ptr, ptr %7, align 8
  %142 = load i32, ptr %8, align 4
  %143 = add i32 %142, 8
  %144 = load i16, ptr %21, align 2
  %145 = zext i16 %144 to i32
  %146 = call ptr @proto_tree_add_uint(ptr noundef %139, i32 noundef %140, ptr noundef %141, i32 noundef %143, i32 noundef 2, i32 noundef %145)
  %147 = load ptr, ptr %15, align 8
  %148 = load i32, ptr @hf_dtpt_sockaddr_address, align 4
  %149 = load ptr, ptr %7, align 8
  %150 = load i32, ptr %8, align 4
  %151 = add i32 %150, 10
  %152 = call ptr @proto_tree_add_item(ptr noundef %147, i32 noundef %148, ptr noundef %149, i32 noundef %151, i32 noundef 4, i32 noundef 0)
  %153 = load ptr, ptr %15, align 8
  %154 = load i32, ptr @hf_dtpt_padding, align 4
  %155 = load ptr, ptr %7, align 8
  %156 = load i32, ptr %8, align 4
  %157 = add i32 %156, 14
  %158 = call ptr @proto_tree_add_item(ptr noundef %153, i32 noundef %154, ptr noundef %155, i32 noundef %157, i32 noundef 16, i32 noundef 0)
  %159 = load ptr, ptr %14, align 8
  %160 = load ptr, ptr %10, align 8
  %161 = getelementptr inbounds nuw %struct._packet_info, ptr %160, i32 0, i32 51
  %162 = load ptr, ptr %161, align 8
  %163 = load ptr, ptr %7, align 8
  %164 = load i32, ptr %8, align 4
  %165 = add i32 %164, 10
  %166 = call ptr @tvb_address_to_str(ptr noundef %162, ptr noundef %163, i32 noundef 2, i32 noundef %165)
  %167 = load i16, ptr %21, align 2
  %168 = zext i16 %167 to i32
  call void (ptr, ptr, ...) @proto_item_append_text(ptr noundef %159, ptr noundef @.str.210, ptr noundef %166, i32 noundef %168)
  call void @llvm.lifetime.end.p0(i64 2, ptr %21) #7
  br label %169

169:                                              ; preds = %115, %128
  call void @llvm.lifetime.end.p0(i64 4, ptr %20) #7
  br label %170

170:                                              ; preds = %64, %169, %114
  br label %171

171:                                              ; preds = %170, %58
  %172 = load i32, ptr %17, align 4
  %173 = load i32, ptr %8, align 4
  %174 = add i32 %173, %172
  store i32 %174, ptr %8, align 4
  %175 = load i32, ptr %8, align 4
  call void @llvm.lifetime.end.p0(i64 4, ptr %17) #7
  call void @llvm.lifetime.end.p0(i64 4, ptr %16) #7
  call void @llvm.lifetime.end.p0(i64 8, ptr %15) #7
  call void @llvm.lifetime.end.p0(i64 8, ptr %14) #7
  call void @llvm.lifetime.end.p0(i64 4, ptr %13) #7
  ret i32 %175
}