; Function Attrs: null_pointer_is_valid sspstrong uwtable
define internal fastcc noundef i32 @dissect_dtpt_sockaddr(ptr noundef %0, i32 noundef %1, ptr noundef %2, ptr noundef readonly captures(none) %3, i32 noundef %4, i32 noundef range(i32 1, 3) %5) unnamed_addr #0 {
  %switch = icmp eq i32 %5, 1
  %.79 = select i1 %switch, i32 4, i32 0
  br i1 %switch, label %7, label %9

7:                                                ; preds = %6
  %8 = tail call i32 @tvb_get_letohl(ptr noundef %0, i32 noundef %1)
  br label %9

9:                                                ; preds = %7, %6
  %.0 = phi i32 [ %8, %7 ], [ 0, %6 ]
  %.not = icmp eq ptr %2, null
  br i1 %.not, label %.thread, label %11

.thread:                                          ; preds = %9
  %10 = add i32 %.79, %1
  br label %61

11:                                               ; preds = %9
  %12 = select i1 %switch, i32 20, i32 30
  %13 = load i32, ptr @ett_dtpt_sockaddr, align 4
  %14 = tail call ptr @proto_registrar_get_name(i32 noundef %4)
  %15 = tail call ptr @proto_tree_add_subtree(ptr noundef nonnull %2, ptr noundef %0, i32 noundef %1, i32 noundef %12, i32 noundef %13, ptr noundef null, ptr noundef %14)
  br i1 %switch, label %16, label %.thread84

16:                                               ; preds = %11
  %17 = load i32, ptr @hf_dtpt_sockaddr_length, align 4
  %18 = tail call ptr @proto_tree_add_uint(ptr noundef %15, i32 noundef %17, ptr noundef %0, i32 noundef %1, i32 noundef 4, i32 noundef %.0)
  %19 = add i32 %1, 4
  %.not78 = icmp eq ptr %15, null
  br i1 %.not78, label %61, label %20

.thread84:                                        ; preds = %11
  %.not7885 = icmp eq ptr %15, null
  br i1 %.not7885, label %61, label %.thread86

20:                                               ; preds = %16
  %21 = tail call zeroext i16 @tvb_get_letohs(ptr noundef %0, i32 noundef %19)
  %22 = load i32, ptr @hf_dtpt_sockaddr_family, align 4
  %23 = zext i16 %21 to i32
  %24 = tail call ptr @proto_tree_add_uint(ptr noundef nonnull %15, i32 noundef %22, ptr noundef %0, i32 noundef %19, i32 noundef 2, i32 noundef %23)
  %cond1 = icmp eq i16 %21, 2
  br i1 %cond1, label %25, label %61

25:                                               ; preds = %20
  %26 = add i32 %1, 6
  %27 = tail call zeroext i16 @tvb_get_ntohs(ptr noundef %0, i32 noundef %26)
  %28 = load i32, ptr @hf_dtpt_sockaddr_port, align 4
  %29 = zext i16 %27 to i32
  %30 = tail call ptr @proto_tree_add_uint(ptr noundef nonnull %15, i32 noundef %28, ptr noundef %0, i32 noundef %26, i32 noundef 2, i32 noundef %29)
  %31 = load i32, ptr @hf_dtpt_sockaddr_address, align 4
  %32 = add i32 %1, 8
  %33 = tail call ptr @proto_tree_add_item(ptr noundef nonnull %15, i32 noundef %31, ptr noundef %0, i32 noundef %32, i32 noundef 4, i32 noundef 0)
  %34 = load i32, ptr @hf_dtpt_padding, align 4
  %35 = add i32 %1, 12
  %36 = tail call ptr @proto_tree_add_item(ptr noundef nonnull %15, i32 noundef %34, ptr noundef %0, i32 noundef %35, i32 noundef 8, i32 noundef 0)
  %37 = getelementptr inbounds nuw i8, ptr %3, i64 408
  %38 = load ptr, ptr %37, align 8
  %39 = tail call ptr @tvb_address_to_str(ptr noundef %38, ptr noundef %0, i32 noundef 2, i32 noundef %32)
  tail call void (ptr, ptr, ...) @proto_item_append_text(ptr noundef null, ptr noundef nonnull @.str.210, ptr noundef %39, i32 noundef %29)
  br label %61

.thread86:                                        ; preds = %.thread84
  %40 = tail call i32 @tvb_get_letohl(ptr noundef %0, i32 noundef %1)
  %41 = load i32, ptr @hf_dtpt_sockaddr_family, align 4
  %42 = tail call ptr @proto_tree_add_uint(ptr noundef nonnull %15, i32 noundef %41, ptr noundef %0, i32 noundef %1, i32 noundef 4, i32 noundef %40)
  %cond = icmp eq i32 %40, 2
  br i1 %cond, label %43, label %61

43:                                               ; preds = %.thread86
  %44 = load i32, ptr @hf_dtpt_padding, align 4
  %45 = add i32 %1, 4
  %46 = tail call ptr @proto_tree_add_item(ptr noundef nonnull %15, i32 noundef %44, ptr noundef %0, i32 noundef %45, i32 noundef 4, i32 noundef 0)
  %47 = add i32 %1, 8
  %48 = tail call zeroext i16 @tvb_get_ntohs(ptr noundef %0, i32 noundef %47)
  %49 = load i32, ptr @hf_dtpt_sockaddr_port, align 4
  %50 = zext i16 %48 to i32
  %51 = tail call ptr @proto_tree_add_uint(ptr noundef nonnull %15, i32 noundef %49, ptr noundef %0, i32 noundef %47, i32 noundef 2, i32 noundef %50)
  %52 = load i32, ptr @hf_dtpt_sockaddr_address, align 4
  %53 = add i32 %1, 10
  %54 = tail call ptr @proto_tree_add_item(ptr noundef nonnull %15, i32 noundef %52, ptr noundef %0, i32 noundef %53, i32 noundef 4, i32 noundef 0)
  %55 = load i32, ptr @hf_dtpt_padding, align 4
  %56 = add i32 %1, 14
  %57 = tail call ptr @proto_tree_add_item(ptr noundef nonnull %15, i32 noundef %55, ptr noundef %0, i32 noundef %56, i32 noundef 16, i32 noundef 0)
  %58 = getelementptr inbounds nuw i8, ptr %3, i64 408
  %59 = load ptr, ptr %58, align 8
  %60 = tail call ptr @tvb_address_to_str(ptr noundef %59, ptr noundef %0, i32 noundef 2, i32 noundef %53)
  tail call void (ptr, ptr, ...) @proto_item_append_text(ptr noundef null, ptr noundef nonnull @.str.210, ptr noundef %60, i32 noundef %50)
  br label %61

61:                                               ; preds = %.thread84, %.thread, %43, %.thread86, %25, %20, %16
  %62 = phi i32 [ %10, %.thread ], [ %1, %43 ], [ %1, %.thread86 ], [ %19, %25 ], [ %19, %20 ], [ %19, %16 ], [ %1, %.thread84 ]
  %. = select i1 %switch, i32 16, i32 30
  %63 = add i32 %62, %.
  ret i32 %63
}